(dp0
S'tagprogress'
p1
(dp2
S'/Users/sean/Desktop/Music/Rise Against'
p3
(lp4
S'/Users/sean/Desktop/Music/Rise Against/Appeal to Reason'
p5
aS'/Users/sean/Desktop/Music/Rise Against/Endgame'
p6
aS'/Users/sean/Desktop/Music/Rise Against/Revolutions Per Minute'
p7
aS'/Users/sean/Desktop/Music/Rise Against/Siren Song of the Counter Culture'
p8
asS'/Users/sean/Desktop/Music/OutKast'
p9
(lp10
S'/Users/sean/Desktop/Music/OutKast/ATLiens'
p11
aS'/Users/sean/Desktop/Music/OutKast/Aquemini'
p12
aS'/Users/sean/Desktop/Music/OutKast/Southernplayalisticadillacmuzik'
p13
asS'/Users/sean/Downloads/Run - DMC'
p14
(lp15
S'/Users/sean/Downloads/Run - DMC/Albums/Run D.M.C. - Back From Hell (1990) by Hillside'
p16
aS'/Users/sean/Downloads/Run - DMC/Albums/Run D.M.C. - King Of Rock (Deluxe Edition) [1985] by Hillside'
p17
ass.